target datalayout = "e-m:e-p270:32:32-p271:32:32-p272:64:64-i64:64-i128:128-f80:128-n8:16:32:64-S128"
target triple = "x86_64-pc-linux-gnu"

%"class.cvc5::internal::theory::arith::linear::TableauSizes" = type { ptr }
%"class.cvc5::internal::theory::arith::linear::Matrix" = type { %"class.std::vector", %"class.std::vector.0", %"class.cvc5::internal::DenseMap", i32, i32, %"class.cvc5::internal::theory::arith::linear::MatrixEntryVector", %"class.std::vector.5", %"class.cvc5::internal::Rational", %"class.cvc5::internal::theory::arith::linear::MatrixEntry" }
%"class.std::vector" = type { %"struct.std::_Vector_base" }
%"struct.std::_Vector_base" = type { %"struct.std::_Vector_base<cvc5::internal::theory::arith::linear::RowVector<cvc5::internal::Rational>, std::allocator<cvc5::internal::theory::arith::linear::RowVector<cvc5::internal::Rational>>>::_Vector_impl" }
%"struct.std::_Vector_base<cvc5::internal::theory::arith::linear::RowVector<cvc5::internal::Rational>, std::allocator<cvc5::internal::theory::arith::linear::RowVector<cvc5::internal::Rational>>>::_Vector_impl" = type { %"struct.std::_Vector_base<cvc5::internal::theory::arith::linear::RowVector<cvc5::internal::Rational>, std::allocator<cvc5::internal::theory::arith::linear::RowVector<cvc5::internal::Rational>>>::_Vector_impl_data" }
%"struct.std::_Vector_base<cvc5::internal::theory::arith::linear::RowVector<cvc5::internal::Rational>, std::allocator<cvc5::internal::theory::arith::linear::RowVector<cvc5::internal::Rational>>>::_Vector_impl_data" = type { ptr, ptr, ptr }
%"class.std::vector.0" = type { %"struct.std::_Vector_base.1" }
%"struct.std::_Vector_base.1" = type { %"struct.std::_Vector_base<cvc5::internal::theory::arith::linear::ColumnVector<cvc5::internal::Rational>, std::allocator<cvc5::internal::theory::arith::linear::ColumnVector<cvc5::internal::Rational>>>::_Vector_impl" }
%"struct.std::_Vector_base<cvc5::internal::theory::arith::linear::ColumnVector<cvc5::internal::Rational>, std::allocator<cvc5::internal::theory::arith::linear::ColumnVector<cvc5::internal::Rational>>>::_Vector_impl" = type { %"struct.std::_Vector_base<cvc5::internal::theory::arith::linear::ColumnVector<cvc5::internal::Rational>, std::allocator<cvc5::internal::theory::arith::linear::ColumnVector<cvc5::internal::Rational>>>::_Vector_impl_data" }
%"struct.std::_Vector_base<cvc5::internal::theory::arith::linear::ColumnVector<cvc5::internal::Rational>, std::allocator<cvc5::internal::theory::arith::linear::ColumnVector<cvc5::internal::Rational>>>::_Vector_impl_data" = type { ptr, ptr, ptr }
%"class.cvc5::internal::DenseMap" = type { %"class.std::vector.5", %"class.std::vector.5", %"class.std::vector.10" }
%"class.std::vector.10" = type { %"struct.std::_Vector_base.11" }
%"struct.std::_Vector_base.11" = type { %"struct.std::_Vector_base<std::pair<unsigned int, bool>, std::allocator<std::pair<unsigned int, bool>>>::_Vector_impl" }
%"struct.std::_Vector_base<std::pair<unsigned int, bool>, std::allocator<std::pair<unsigned int, bool>>>::_Vector_impl" = type { %"struct.std::_Vector_base<std::pair<unsigned int, bool>, std::allocator<std::pair<unsigned int, bool>>>::_Vector_impl_data" }
%"struct.std::_Vector_base<std::pair<unsigned int, bool>, std::allocator<std::pair<unsigned int, bool>>>::_Vector_impl_data" = type { ptr, ptr, ptr }
%"class.cvc5::internal::theory::arith::linear::MatrixEntryVector" = type <{ %"class.std::vector.15", %"class.std::queue", i32, [4 x i8] }>
%"class.std::vector.15" = type { %"struct.std::_Vector_base.16" }
%"struct.std::_Vector_base.16" = type { %"struct.std::_Vector_base<cvc5::internal::theory::arith::linear::MatrixEntry<cvc5::internal::Rational>, std::allocator<cvc5::internal::theory::arith::linear::MatrixEntry<cvc5::internal::Rational>>>::_Vector_impl" }
%"struct.std::_Vector_base<cvc5::internal::theory::arith::linear::MatrixEntry<cvc5::internal::Rational>, std::allocator<cvc5::internal::theory::arith::linear::MatrixEntry<cvc5::internal::Rational>>>::_Vector_impl" = type { %"struct.std::_Vector_base<cvc5::internal::theory::arith::linear::MatrixEntry<cvc5::internal::Rational>, std::allocator<cvc5::internal::theory::arith::linear::MatrixEntry<cvc5::internal::Rational>>>::_Vector_impl_data" }
%"struct.std::_Vector_base<cvc5::internal::theory::arith::linear::MatrixEntry<cvc5::internal::Rational>, std::allocator<cvc5::internal::theory::arith::linear::MatrixEntry<cvc5::internal::Rational>>>::_Vector_impl_data" = type { ptr, ptr, ptr }
%"class.std::queue" = type { %"class.std::deque" }
%"class.std::deque" = type { %"class.std::_Deque_base" }
%"class.std::_Deque_base" = type { %"struct.std::_Deque_base<unsigned int, std::allocator<unsigned int>>::_Deque_impl" }
%"struct.std::_Deque_base<unsigned int, std::allocator<unsigned int>>::_Deque_impl" = type { %"struct.std::_Deque_base<unsigned int, std::allocator<unsigned int>>::_Deque_impl_data" }
%"struct.std::_Deque_base<unsigned int, std::allocator<unsigned int>>::_Deque_impl_data" = type { ptr, i64, %"struct.std::_Deque_iterator", %"struct.std::_Deque_iterator" }
%"struct.std::_Deque_iterator" = type { ptr, ptr, ptr, ptr }
%"class.std::vector.5" = type { %"struct.std::_Vector_base.6" }
%"struct.std::_Vector_base.6" = type { %"struct.std::_Vector_base<unsigned int, std::allocator<unsigned int>>::_Vector_impl" }
%"struct.std::_Vector_base<unsigned int, std::allocator<unsigned int>>::_Vector_impl" = type { %"struct.std::_Vector_base<unsigned int, std::allocator<unsigned int>>::_Vector_impl_data" }
%"struct.std::_Vector_base<unsigned int, std::allocator<unsigned int>>::_Vector_impl_data" = type { ptr, ptr, ptr }
%"class.cvc5::internal::Rational" = type { %class.__gmp_expr }
%class.__gmp_expr = type { [1 x %struct.__mpq_struct] }
%struct.__mpq_struct = type { %struct.__mpz_struct, %struct.__mpz_struct }
%struct.__mpz_struct = type { i32, i32, ptr }
%"class.cvc5::internal::theory::arith::linear::MatrixEntry" = type { i32, i32, i32, i32, i32, i32, %"class.cvc5::internal::Rational" }
%"class.cvc5::internal::theory::arith::linear::MatrixVector.21" = type { i32, i32, ptr }
%"class.cvc5::internal::theory::arith::linear::ColumnVector" = type { %"class.cvc5::internal::theory::arith::linear::MatrixVector.21" }

; Function Attrs: mustprogress nounwind uwtable
define linkonce_odr hidden noundef nonnull align 8 dereferenceable(16) ptr @_ZNKSt6vectorIN4cvc58internal6theory5arith6linear12ColumnVectorINS1_8RationalEEESaIS7_EEixEm(ptr noundef nonnull align 8 dereferenceable(24) %0, i64 noundef %1) #6 comdat align 2 {
  %3 = alloca ptr, align 8
  %4 = alloca i64, align 8
  store ptr %0, ptr %3, align 8, !tbaa !39
  store i64 %1, ptr %4, align 8, !tbaa !20
  %5 = load ptr, ptr %3, align 8
  %6 = getelementptr inbounds nuw %"struct.std::_Vector_base.1", ptr %5, i32 0, i32 0
  %7 = getelementptr inbounds nuw %"struct.std::_Vector_base<cvc5::internal::theory::arith::linear::ColumnVector<cvc5::internal::Rational>, std::allocator<cvc5::internal::theory::arith::linear::ColumnVector<cvc5::internal::Rational>>>::_Vector_impl_data", ptr %6, i32 0, i32 0
  %8 = load ptr, ptr %7, align 8, !tbaa !41
  %9 = load i64, ptr %4, align 8, !tbaa !20
  %10 = getelementptr inbounds nuw %"class.cvc5::internal::theory::arith::linear::ColumnVector", ptr %8, i64 %9
  ret ptr %10
}

; Function Attrs: mustprogress nounwind uwtable
define linkonce_odr hidden noundef i32 @_ZNK4cvc58internal6theory5arith6linear12MatrixVectorINS0_8RationalELb0EE7getSizeEv(ptr noundef nonnull align 8 dereferenceable(16) %0) #6 comdat align 2 {
  %2 = alloca ptr, align 8
  store ptr %0, ptr %2, align 8, !tbaa !35
  %3 = load ptr, ptr %2, align 8
  %4 = getelementptr inbounds nuw %"class.cvc5::internal::theory::arith::linear::MatrixVector.21", ptr %3, i32 0, i32 1
  %5 = load i32, ptr %4, align 4, !tbaa !37
  ret i32 %5
}

; Function Attrs: mustprogress nounwind uwtable
define linkonce_odr hidden noundef nonnull align 8 dereferenceable(16) ptr @_ZNK4cvc58internal6theory5arith6linear6MatrixINS0_8RationalEE9getColumnEj(ptr noundef nonnull align 8 dereferenceable(352) %0, i32 noundef %1) #6 comdat align 2 {
  %3 = alloca ptr, align 8
  %4 = alloca i32, align 4
  store ptr %0, ptr %3, align 8, !tbaa !14
  store i32 %1, ptr %4, align 4, !tbaa !8
  %5 = load ptr, ptr %3, align 8
  %6 = getelementptr inbounds nuw %"class.cvc5::internal::theory::arith::linear::Matrix", ptr %5, i32 0, i32 1
  %7 = load i32, ptr %4, align 4, !tbaa !8
  %8 = zext i32 %7 to i64
  %9 = call noundef nonnull align 8 dereferenceable(16) ptr @_ZNKSt6vectorIN4cvc58internal6theory5arith6linear12ColumnVectorINS1_8RationalEEESaIS7_EEixEm(ptr noundef nonnull align 8 dereferenceable(24) %6, i64 noundef %8) #3
  ret ptr %9
}

; Function Attrs: mustprogress uwtable
define linkonce_odr hidden noundef i32 @_ZNK4cvc58internal6theory5arith6linear6MatrixINS0_8RationalEE12getColLengthEj(ptr noundef nonnull align 8 dereferenceable(352) %0, i32 noundef %1) #4 comdat align 2 {
  %3 = alloca ptr, align 8
  %4 = alloca i32, align 4
  store ptr %0, ptr %3, align 8, !tbaa !14
  store i32 %1, ptr %4, align 4, !tbaa !8
  %5 = load ptr, ptr %3, align 8
  %6 = load i32, ptr %4, align 4, !tbaa !8
  %7 = call noundef nonnull align 8 dereferenceable(16) ptr @_ZNK4cvc58internal6theory5arith6linear6MatrixINS0_8RationalEE9getColumnEj(ptr noundef nonnull align 8 dereferenceable(352) %5, i32 noundef %6)
  %8 = call noundef i32 @_ZNK4cvc58internal6theory5arith6linear12MatrixVectorINS0_8RationalELb0EE7getSizeEv(ptr noundef nonnull align 8 dereferenceable(16) %7)
  ret i32 %8
}

; Function Attrs: mustprogress uwtable
define hidden noundef i32 @_ZNK4cvc58internal6theory5arith6linear12TableauSizes15getColumnLengthEj(ptr noundef nonnull align 8 dereferenceable(8) %0, i32 noundef %1) #4 align 2 {
  %3 = alloca ptr, align 8
  %4 = alloca i32, align 4
  store ptr %0, ptr %3, align 8, !tbaa !3
  store i32 %1, ptr %4, align 4, !tbaa !8
  %5 = load ptr, ptr %3, align 8
  %6 = getelementptr inbounds nuw %"class.cvc5::internal::theory::arith::linear::TableauSizes", ptr %5, i32 0, i32 0
  %7 = load ptr, ptr %6, align 8, !tbaa !10
  %8 = load i32, ptr %4, align 4, !tbaa !8
  %9 = call noundef i32 @_ZNK4cvc58internal6theory5arith6linear6MatrixINS0_8RationalEE12getColLengthEj(ptr noundef nonnull align 8 dereferenceable(352) %7, i32 noundef %8)
  ret i32 %9
}